Certificate:
    Data:
        Version: 3 (0x2)
        Serial Number: 0 (0x0)
    Signature Algorithm: sha256WithRSAEncryption
        Issuer: C=CN, ST=shenzhen, L=shenzhen, O=eth, OU=the, CN=eht
        Validity
            Not Before: Feb 16 09:04:46 2022 GMT
            Not After : Jan 23 09:04:46 2122 GMT
        Subject: C=CN, ST=shenzhen, O=eth, OU=the, CN=eth
        Subject Public Key Info:
            Public Key Algorithm: rsaEncryption
                Public-Key: (4096 bit)
                Modulus:
                    00:b7:d1:55:6e:55:40:f2:5f:12:d2:0a:6d:b4:da:
                    45:a0:30:28:88:9a:6e:36:c7:da:b5:99:ab:50:0d:
                    b0:76:f8:fe:4c:f9:8f:12:70:87:ca:95:aa:1e:c8:
                    33:be:a8:f5:97:fc:cc:20:94:38:26:16:97:c8:4d:
                    a5:26:51:3d:e7:81:d6:fe:bc:10:77:41:28:64:44:
                    c1:7c:10:be:cf:62:ca:d1:3c:3c:77:64:9d:b4:7b:
                    c1:67:d6:8c:e9:1e:8e:30:38:5f:32:b9:0c:92:67:
                    e6:2f:8a:e9:61:13:6f:69:c6:c1:3f:d5:15:27:82:
                    18:11:9e:c5:00:ff:b7:56:ca:df:cf:89:f2:07:a9:
                    f6:6d:2e:56:1c:84:a0:ae:be:01:48:65:f1:ec:19:
                    a4:41:fb:ab:3e:74:48:26:63:9a:59:67:7f:15:f7:
                    99:ab:02:68:be:55:c1:db:1d:59:b8:81:c4:06:01:
                    7e:14:d4:88:77:a9:ac:be:89:d3:83:86:2d:dc:30:
                    41:a9:06:63:8b:da:d2:f7:7f:8c:f6:87:3c:84:ee:
                    ab:6e:3a:da:19:fc:5c:ee:ae:35:60:57:d6:a7:42:
                    1f:78:28:dc:cf:28:eb:f3:5f:4e:33:1a:34:b4:05:
                    3d:2c:3c:11:4f:60:2b:46:0e:4c:d9:94:cc:bf:65:
                    7f:25:92:7b:47:86:21:b4:a8:54:78:4d:1b:b9:20:
                    ba:9d:3e:6f:85:0f:31:34:71:1f:61:3d:0c:b7:19:
                    6c:f1:d5:93:6c:77:78:39:82:03:2c:ef:95:74:9c:
                    ac:27:70:7f:77:be:13:52:26:cc:17:80:ad:79:d8:
                    a3:04:59:80:5c:f5:f4:fc:3e:74:02:61:47:b7:94:
                    96:fd:78:f5:12:34:a1:a0:d4:49:a4:56:9f:67:44:
                    dc:6d:2c:58:44:27:18:b3:04:e0:bf:60:b5:96:f2:
                    3a:ce:a0:98:14:40:66:dc:3b:fd:0f:72:82:f6:b5:
                    fe:9b:7c:b0:27:eb:2e:1c:0a:98:93:6f:cb:ff:fb:
                    71:d1:d1:e8:31:1d:e6:83:77:af:80:e2:dc:55:c3:
                    1e:b4:a2:49:c1:0d:30:42:8a:f0:f2:2b:15:8a:ab:
                    72:9a:8f:99:1f:cd:81:66:79:d8:13:19:0c:87:1d:
                    57:46:6e:56:be:c5:0b:12:f2:b0:ea:d2:8a:d8:67:
                    e9:ff:8c:7f:78:20:cb:e5:db:bb:dd:ad:49:ea:b6:
                    ba:43:c3:50:45:4c:06:f7:d1:7c:aa:47:4b:a0:af:
                    44:8c:a4:bc:1d:67:20:53:e4:2e:47:13:a4:c5:1c:
                    d9:95:c6:14:44:e4:6a:5d:41:9d:57:80:c3:f8:7d:
                    15:bd:d1
                Exponent: 65537 (0x10001)
        X509v3 extensions:
            X509v3 Basic Constraints: 
                CA:FALSE
            Netscape Comment: 
                OpenSSL Generated Certificate
            X509v3 Subject Key Identifier: 
                93:ED:17:41:85:CE:1F:7E:8A:46:28:B3:1A:EE:76:A5:5E:18:35:34
            X509v3 Authority Key Identifier: 
                keyid:71:2C:AD:50:CA:09:42:AC:2A:00:31:01:81:33:C5:F9:C1:78:83:59

    Signature Algorithm: sha256WithRSAEncryption
         37:d9:d9:8c:6e:ee:c9:05:82:d1:b4:8c:20:fc:1b:4c:ce:a9:
         2e:ef:4d:cb:7c:3d:f5:fd:e0:21:c4:8e:ef:11:61:f8:34:8e:
         79:80:91:d7:48:bd:6b:5b:5c:b6:74:e8:f2:e2:a4:81:60:b4:
         9c:c6:03:28:bd:2f:76:0d:da:d9:a4:29:99:5d:9a:18:14:2d:
         25:a4:6a:0f:2e:8f:fc:49:d2:43:de:a3:16:75:4b:e2:2c:59:
         cc:a1:f6:71:93:84:f6:d7:bc:14:d7:3c:57:22:b2:d1:88:e5:
         db:53:7b:d6:10:45:0b:5f:0c:43:82:f7:64:85:db:83:08:67:
         07:e9:e7:89:3f:d8:d0:d0:50:bd:6c:ca:dc:9d:f4:87:31:6e:
         71:1b:e2:da:ca:68:c7:bf:7e:a0:9b:96:f0:17:a6:60:d2:c7:
         fb:19:8a:75:4c:bf:88:c3:0b:2f:3c:93:16:08:58:2f:a1:c5:
         46:10:44:2c:d8:72:61:f4:76:d6:b1:a1:9a:46:4c:c8:3e:12:
         bb:c6:2a:a4:07:1b:2b:5f:0c:72:a7:2d:69:77:18:e8:f2:a5:
         4d:2b:f7:cb:1c:b5:20:ff:11:52:6b:ea:8f:73:5d:cb:98:cf:
         9f:c4:f0:44:da:52:3c:56:50:c1:f8:43:8b:df:31:b5:c0:53:
         43:7d:38:68:c9:44:e1:2c:45:ad:4b:41:bc:34:ea:b9:51:19:
         47:35:59:e2:25:0a:67:dd:d4:32:90:0b:f6:78:67:e3:9f:14:
         a0:be:2e:f4:7a:52:f9:52:24:2c:aa:bf:bb:3b:85:1a:cc:44:
         0a:ab:d1:b5:ea:b2:af:f6:f9:36:69:20:63:b4:26:1b:51:54:
         05:d2:07:3e:83:42:df:01:dd:5e:b6:84:f6:c3:50:cc:43:10:
         73:5d:4e:43:df:b1:fe:6e:a8:32:fc:4d:28:d4:4c:75:a7:1c:
         f7:a1:9c:da:d4:44:69:e1:aa:8b:6f:a4:2a:73:87:28:19:e6:
         28:58:79:08:97:1b:2e:80:2d:05:e2:05:96:c1:ef:43:1f:70:
         66:cb:d4:ae:6a:fd:b6:12:f3:18:1f:20:34:49:9e:75:94:07:
         4a:d3:a7:9c:cd:98:c1:3f:01:46:66:97:4a:39:bd:fc:3e:cb:
         bb:e7:ef:f8:76:6c:20:9e:99:f6:96:82:b8:48:92:f2:98:44:
         de:6c:b1:31:c4:f3:ad:f3:92:9c:69:b7:08:f0:6f:cc:91:76:
         73:a9:db:de:6f:47:ee:8d:8e:1e:fb:e5:d5:ce:0f:77:11:0f:
         56:da:3e:10:69:bf:9f:73:57:11:db:1e:2d:57:97:c0:4b:2c:
         e6:1c:9f:d4:b2:a5:cc:3e
-----BEGIN CERTIFICATE-----
MIIFnzCCA4egAwIBAgIBADANBgkqhkiG9w0BAQsFADBdMQswCQYDVQQGEwJDTjER
MA8GA1UECAwIc2hlbnpoZW4xETAPBgNVBAcMCHNoZW56aGVuMQwwCgYDVQQKDANl
dGgxDDAKBgNVBAsMA3RoZTEMMAoGA1UEAwwDZWh0MCAXDTIyMDIxNjA5MDQ0NloY
DzIxMjIwMTIzMDkwNDQ2WjBKMQswCQYDVQQGEwJDTjERMA8GA1UECAwIc2hlbnpo
ZW4xDDAKBgNVBAoMA2V0aDEMMAoGA1UECwwDdGhlMQwwCgYDVQQDDANldGgwggIi
MA0GCSqGSIb3DQEBAQUAA4ICDwAwggIKAoICAQC30VVuVUDyXxLSCm202kWgMCiI
mm42x9q1matQDbB2+P5M+Y8ScIfKlaoeyDO+qPWX/MwglDgmFpfITaUmUT3ngdb+
vBB3QShkRMF8EL7PYsrRPDx3ZJ20e8Fn1ozpHo4wOF8yuQySZ+YviulhE29pxsE/
1RUnghgRnsUA/7dWyt/PifIHqfZtLlYchKCuvgFIZfHsGaRB+6s+dEgmY5pZZ38V
95mrAmi+VcHbHVm4gcQGAX4U1Ih3qay+idODhi3cMEGpBmOL2tL3f4z2hzyE7qtu
OtoZ/FzurjVgV9anQh94KNzPKOvzX04zGjS0BT0sPBFPYCtGDkzZlMy/ZX8lkntH
hiG0qFR4TRu5ILqdPm+FDzE0cR9hPQy3GWzx1ZNsd3g5ggMs75V0nKwncH93vhNS
JswXgK152KMEWYBc9fT8PnQCYUe3lJb9ePUSNKGg1EmkVp9nRNxtLFhEJxizBOC/
YLWW8jrOoJgUQGbcO/0PcoL2tf6bfLAn6y4cCpiTb8v/+3HR0egxHeaDd6+A4txV
wx60oknBDTBCivDyKxWKq3Kaj5kfzYFmedgTGQyHHVdGbla+xQsS8rDq0orYZ+n/
jH94IMvl27vdrUnqtrpDw1BFTAb30XyqR0ugr0SMpLwdZyBT5C5HE6TFHNmVxhRE
5GpdQZ1XgMP4fRW90QIDAQABo3sweTAJBgNVHRMEAjAAMCwGCWCGSAGG+EIBDQQf
Fh1PcGVuU1NMIEdlbmVyYXRlZCBDZXJ0aWZpY2F0ZTAdBgNVHQ4EFgQUk+0XQYXO
H36KRiizGu52pV4YNTQwHwYDVR0jBBgwFoAUcSytUMoJQqwqADEBgTPF+cF4g1kw
DQYJKoZIhvcNAQELBQADggIBADfZ2Yxu7skFgtG0jCD8G0zOqS7vTct8PfX94CHE
ju8RYfg0jnmAkddIvWtbXLZ06PLipIFgtJzGAyi9L3YN2tmkKZldmhgULSWkag8u
j/xJ0kPeoxZ1S+IsWcyh9nGThPbXvBTXPFcistGI5dtTe9YQRQtfDEOC92SF24MI
Zwfp54k/2NDQUL1sytyd9IcxbnEb4trKaMe/fqCblvAXpmDSx/sZinVMv4jDCy88
kxYIWC+hxUYQRCzYcmH0dtaxoZpGTMg+ErvGKqQHGytfDHKnLWl3GOjypU0r98sc
tSD/EVJr6o9zXcuYz5/E8ETaUjxWUMH4Q4vfMbXAU0N9OGjJROEsRa1LQbw06rlR
GUc1WeIlCmfd1DKQC/Z4Z+OfFKC+LvR6UvlSJCyqv7s7hRrMRAqr0bXqsq/2+TZp
IGO0JhtRVAXSBz6DQt8B3V62hPbDUMxDEHNdTkPfsf5uqDL8TSjUTHWnHPehnNrU
RGnhqotvpCpzhygZ5ihYeQiXGy6ALQXiBZbB70MfcGbL1K5q/bYS8xgfIDRJnnWU
B0rTp5zNmME/AUZml0o5vfw+y7vn7/h2bCCemfaWgrhIkvKYRN5ssTHE863zkpxp
twjwb8yRdnOp295vR+6Njh775dXOD3cRD1baPhBpv59zVxHbHi1Xl8BLLOYcn9Sy
pcw+
-----END CERTIFICATE-----
